; Function Attrs: mustprogress uwtable
define hidden void @_ZNK5osgeo4proj9operation10Conversion12shallowCloneEv(ptr dead_on_unwind noalias writable sret(%"class.dropbox::oxygen::nn.42") align 8 %0, ptr noundef nonnull align 8 dereferenceable(24) %1) local_unnamed_addr #0 align 2 personality ptr @__gxx_personality_v0 {
  %3 = alloca %"struct.osgeo::proj::util::BaseObjectNNPtr", align 8
  tail call void @_ZN5osgeo4proj9operation10Conversion14nn_make_sharedIS2_JRKS2_EEEN7dropbox6oxygen2nnISt10shared_ptrIT_EEEDpOT0_(ptr dead_on_unwind writable sret(%"class.dropbox::oxygen::nn.42") align 8 %0, ptr noundef nonnull align 8 dereferenceable(24) %1)
  %4 = load ptr, ptr %0, align 8, !tbaa !12
  %5 = load ptr, ptr %4, align 8, !tbaa !3
  %6 = getelementptr i8, ptr %5, i64 -24
  %7 = load i64, ptr %6, align 8
  call void @llvm.lifetime.start.p0(i64 16, ptr nonnull %3) #32
  %8 = getelementptr inbounds i8, ptr %4, i64 %7
  store ptr %8, ptr %3, align 8, !tbaa !17
  %9 = getelementptr inbounds nuw i8, ptr %3, i64 8
  %10 = getelementptr inbounds nuw i8, ptr %0, i64 8
  %11 = load ptr, ptr %10, align 8, !tbaa !20
  store ptr %11, ptr %9, align 8, !tbaa !20
  %.not.i.i.i.i.i = icmp eq ptr %11, null
  br i1 %.not.i.i.i.i.i, label %_ZN5osgeo4proj4util15BaseObjectNNPtrC2INS0_9operation10ConversionEEERKN7dropbox6oxygen2nnISt10shared_ptrIT_EEE.exit, label %12

12:                                               ; preds = %2
  %13 = getelementptr inbounds nuw i8, ptr %11, i64 8
  %14 = load i8, ptr @__libc_single_threaded, align 1, !tbaa !21
  %.not.i.i.i.i.i.i = icmp eq i8 %14, 0
  br i1 %.not.i.i.i.i.i.i, label %18, label %15

15:                                               ; preds = %12
  %16 = load i32, ptr %13, align 4, !tbaa !22
  %17 = add nsw i32 %16, 1
  store i32 %17, ptr %13, align 4, !tbaa !22
  br label %_ZN5osgeo4proj4util15BaseObjectNNPtrC2INS0_9operation10ConversionEEERKN7dropbox6oxygen2nnISt10shared_ptrIT_EEE.exit

18:                                               ; preds = %12
  %19 = atomicrmw volatile add ptr %13, i32 1 acq_rel, align 4
  br label %_ZN5osgeo4proj4util15BaseObjectNNPtrC2INS0_9operation10ConversionEEERKN7dropbox6oxygen2nnISt10shared_ptrIT_EEE.exit

_ZN5osgeo4proj4util15BaseObjectNNPtrC2INS0_9operation10ConversionEEERKN7dropbox6oxygen2nnISt10shared_ptrIT_EEE.exit: ; preds = %18, %15, %2
  invoke void @_ZN5osgeo4proj4util10BaseObject10assignSelfERKNS1_15BaseObjectNNPtrE(ptr noundef nonnull align 8 dereferenceable(16) %8, ptr noundef nonnull align 8 dereferenceable(16) %3)
          to label %20 unwind label %32

20:                                               ; preds = %_ZN5osgeo4proj4util15BaseObjectNNPtrC2INS0_9operation10ConversionEEERKN7dropbox6oxygen2nnISt10shared_ptrIT_EEE.exit
  call void @_ZN5osgeo4proj4util15BaseObjectNNPtrD1Ev(ptr noundef nonnull align 8 dereferenceable(16) %3) #32
  call void @llvm.lifetime.end.p0(i64 16, ptr nonnull %3) #32
  %21 = load ptr, ptr %0, align 8, !tbaa !12
  %22 = load ptr, ptr %21, align 8, !tbaa !3
  %23 = getelementptr i8, ptr %22, i64 -24
  %24 = load i64, ptr %23, align 8
  %25 = getelementptr inbounds i8, ptr %21, i64 %24
  %26 = load ptr, ptr %1, align 8, !tbaa !3
  %27 = getelementptr i8, ptr %26, i64 -24
  %28 = load i64, ptr %27, align 8
  %29 = getelementptr inbounds i8, ptr %1, i64 %28
  invoke void @_ZN5osgeo4proj9operation19CoordinateOperation7setCRSsEPKS2_b(ptr noundef nonnull align 8 dereferenceable(72) %25, ptr noundef nonnull %29, i1 noundef zeroext false)
          to label %34 unwind label %30

30:                                               ; preds = %20
  %31 = landingpad { ptr, i32 }
          cleanup
  br label %35

32:                                               ; preds = %_ZN5osgeo4proj4util15BaseObjectNNPtrC2INS0_9operation10ConversionEEERKN7dropbox6oxygen2nnISt10shared_ptrIT_EEE.exit
  %33 = landingpad { ptr, i32 }
          cleanup
  call void @_ZN5osgeo4proj4util15BaseObjectNNPtrD1Ev(ptr noundef nonnull align 8 dereferenceable(16) %3) #32
  call void @llvm.lifetime.end.p0(i64 16, ptr nonnull %3) #32
  br label %35

34:                                               ; preds = %20
  ret void

35:                                               ; preds = %32, %30
  %.pn6 = phi { ptr, i32 } [ %31, %30 ], [ %33, %32 ]
  call void @_ZN7dropbox6oxygen2nnISt10shared_ptrIN5osgeo4proj9operation10ConversionEEED2Ev(ptr noundef nonnull align 8 dereferenceable(16) %0) #32
  resume { ptr, i32 } %.pn6
}